(lp0
S'/notes/2013/12/11/1386731255912'
p1
aS'/notes/2013/12/11/1386731280934'
p2
aS'/notes/2013/12/11/1386734817537'
p3
aS'/notes/2013/12/11/1386737546478'
p4
aS'/notes/2013/12/11/1386752478697'
p5
aS'/notes/2013/12/11/1386752484745'
p6
aS'/notes/2013/12/11/1386752490454'
p7
aS'/notes/2013/12/27/1388112259210'
p8
aS'/notes/2013/12/27/1388112317600'
p9
a.